; ModuleID = '13/432.c'
source_filename = "13/432.c"
target datalayout = "e-m:e-p270:32:32-p271:32:32-p272:64:64-i64:64-f80:128-n8:16:32:64-S128"
target triple = "x86_64-pc-linux-gnu"

@.str = private unnamed_addr constant [3 x i8] c"%d\00", align 1
@.str.1 = private unnamed_addr constant [4 x i8] c" %d\00", align 1

; Function Attrs: noinline nounwind uwtable
define dso_local void @main() #0 {
  %1 = alloca i32, align 4
  %2 = alloca i32, align 4
  %3 = alloca i32, align 4
  %4 = alloca [20000 x i32], align 16
  %5 = call i32 (i8*, ...) @__isoc99_scanf(i8* getelementptr inbounds ([3 x i8], [3 x i8]* @.str, i64 0, i64 0), i32* %3)
  store i32 0, i32* %1, align 4
  br label %6

6:                                                ; preds = %15, %0
  %7 = load i32, i32* %1, align 4
  %8 = load i32, i32* %3, align 4
  %9 = icmp slt i32 %7, %8
  br i1 %9, label %10, label %18

10:                                               ; preds = %6
  %11 = load i32, i32* %1, align 4
  %12 = sext i32 %11 to i64
  %13 = getelementptr inbounds [20000 x i32], [20000 x i32]* %4, i64 0, i64 %12
  %14 = call i32 (i8*, ...) @__isoc99_scanf(i8* getelementptr inbounds ([3 x i8], [3 x i8]* @.str, i64 0, i64 0), i32* %13)
  br label %15

15:                                               ; preds = %10
  %16 = load i32, i32* %1, align 4
  %17 = add nsw i32 %16, 1
  store i32 %17, i32* %1, align 4
  br label %6

18:                                               ; preds = %6
  %19 = getelementptr inbounds [20000 x i32], [20000 x i32]* %4, i64 0, i64 0
  %20 = load i32, i32* %19, align 16
  %21 = call i32 (i8*, ...) @printf(i8* getelementptr inbounds ([3 x i8], [3 x i8]* @.str, i64 0, i64 0), i32 %20)
  %22 = load i32, i32* %3, align 4
  %23 = icmp sge i32 %22, 2
  br i1 %23, label %24, label %91

24:                                               ; preds = %18
  %25 = getelementptr inbounds [20000 x i32], [20000 x i32]* %4, i64 0, i64 1
  %26 = load i32, i32* %25, align 4
  %27 = getelementptr inbounds [20000 x i32], [20000 x i32]* %4, i64 0, i64 0
  %28 = load i32, i32* %27, align 16
  %29 = icmp ne i32 %26, %28
  br i1 %29, label %30, label %34

30:                                               ; preds = %24
  %31 = getelementptr inbounds [20000 x i32], [20000 x i32]* %4, i64 0, i64 1
  %32 = load i32, i32* %31, align 4
  %33 = call i32 (i8*, ...) @printf(i8* getelementptr inbounds ([4 x i8], [4 x i8]* @.str.1, i64 0, i64 0), i32 %32)
  br label %34

34:                                               ; preds = %30, %24
  store i32 2, i32* %1, align 4
  br label %35

35:                                               ; preds = %87, %34
  %36 = load i32, i32* %1, align 4
  %37 = load i32, i32* %3, align 4
  %38 = icmp slt i32 %36, %37
  br i1 %38, label %39, label %90

39:                                               ; preds = %35
  %40 = load i32, i32* %1, align 4
  %41 = sext i32 %40 to i64
  %42 = getelementptr inbounds [20000 x i32], [20000 x i32]* %4, i64 0, i64 %41
  %43 = load i32, i32* %42, align 4
  %44 = getelementptr inbounds [20000 x i32], [20000 x i32]* %4, i64 0, i64 0
  %45 = load i32, i32* %44, align 16
  %46 = icmp ne i32 %43, %45
  br i1 %46, label %47, label %85

47:                                               ; preds = %39
  store i32 0, i32* %2, align 4
  br label %48

48:                                               ; preds = %65, %47
  %49 = load i32, i32* %2, align 4
  %50 = load i32, i32* %1, align 4
  %51 = sub nsw i32 %50, 1
  %52 = icmp slt i32 %49, %51
  br i1 %52, label %53, label %68

53:                                               ; preds = %48
  %54 = load i32, i32* %2, align 4
  %55 = sext i32 %54 to i64
  %56 = getelementptr inbounds [20000 x i32], [20000 x i32]* %4, i64 0, i64 %55
  %57 = load i32, i32* %56, align 4
  %58 = load i32, i32* %1, align 4
  %59 = sext i32 %58 to i64
  %60 = getelementptr inbounds [20000 x i32], [20000 x i32]* %4, i64 0, i64 %59
  %61 = load i32, i32* %60, align 4
  %62 = icmp ne i32 %57, %61
  br i1 %62, label %63, label %64

63:                                               ; preds = %53
  br label %65

64:                                               ; preds = %53
  br label %68

65:                                               ; preds = %63
  %66 = load i32, i32* %2, align 4
  %67 = add nsw i32 %66, 1
  store i32 %67, i32* %2, align 4
  br label %48

68:                                               ; preds = %64, %48
  %69 = load i32, i32* %2, align 4
  %70 = sext i32 %69 to i64
  %71 = getelementptr inbounds [20000 x i32], [20000 x i32]* %4, i64 0, i64 %70
  %72 = load i32, i32* %71, align 4
  %73 = load i32, i32* %1, align 4
  %74 = sext i32 %73 to i64
  %75 = getelementptr inbounds [20000 x i32], [20000 x i32]* %4, i64 0, i64 %74
  %76 = load i32, i32* %75, align 4
  %77 = icmp ne i32 %72, %76
  br i1 %77, label %78, label %84

78:                                               ; preds = %68
  %79 = load i32, i32* %1, align 4
  %80 = sext i32 %79 to i64
  %81 = getelementptr inbounds [20000 x i32], [20000 x i32]* %4, i64 0, i64 %80
  %82 = load i32, i32* %81, align 4
  %83 = call i32 (i8*, ...) @printf(i8* getelementptr inbounds ([4 x i8], [4 x i8]* @.str.1, i64 0, i64 0), i32 %82)
  br label %84

84:                                               ; preds = %78, %68
  br label %86

85:                                               ; preds = %39
  br label %87

86:                                               ; preds = %84
  br label %87

87:                                               ; preds = %86, %85
  %88 = load i32, i32* %1, align 4
  %89 = add nsw i32 %88, 1
  store i32 %89, i32* %1, align 4
  br label %35

90:                                               ; preds = %35
  br label %91

91:                                               ; preds = %90, %18
  ret void
}

declare dso_local i32 @__isoc99_scanf(i8*, ...) #1

declare dso_local i32 @printf(i8*, ...) #1


!llvm.module.flags = !{!0}
!llvm.ident = !{!1}

!0 = !{i32 1, !"wchar_size", i32 4}
!1 = !{!"clang version 10.0.0-4ubuntu1 "}
